; Function Attrs: nounwind uwtable
define hidden void @X11_UpdateWindowPosition(ptr noundef %0, i1 noundef zeroext %1) local_unnamed_addr #0 {
  %3 = getelementptr inbounds nuw i8, ptr %0, i64 392
  %4 = load ptr, ptr %3, align 8
  %5 = getelementptr inbounds nuw i8, ptr %4, i64 336
  %6 = load ptr, ptr %5, align 8
  %7 = load ptr, ptr %6, align 8
  %.in.v = select i1 %1, i64 24, i64 136
  %.in = getelementptr inbounds nuw i8, ptr %0, i64 %.in.v
  %8 = load i32, ptr %.in, align 8
  %.in21.v = select i1 %1, i64 28, i64 140
  %.in21 = getelementptr inbounds nuw i8, ptr %0, i64 %.in21.v
  %9 = load i32, ptr %.in21, align 4
  %10 = getelementptr inbounds nuw i8, ptr %4, i64 100
  %11 = load i32, ptr %10, align 4
  %12 = sub nsw i32 %8, %11
  %13 = getelementptr inbounds nuw i8, ptr %4, i64 108
  %14 = load i32, ptr %13, align 4
  %15 = sub nsw i32 %9, %14
  %16 = getelementptr inbounds nuw i8, ptr %4, i64 468
  %17 = getelementptr inbounds nuw i8, ptr %4, i64 472
  tail call void @SDL_RelativeToGlobalForWindow(ptr noundef %0, i32 noundef %12, i32 noundef %15, ptr noundef nonnull %16, ptr noundef nonnull %17) #12
  %18 = getelementptr inbounds nuw i8, ptr %0, i64 72
  %19 = load i64, ptr %18, align 8
  %20 = and i64 %19, 8
  %.not = icmp eq i64 %20, 0
  br i1 %.not, label %24, label %21

21:                                               ; preds = %2
  %22 = load ptr, ptr %3, align 8
  %23 = getelementptr inbounds nuw i8, ptr %22, i64 537
  store i8 1, ptr %23, align 1
  br label %34

24:                                               ; preds = %2
  %25 = getelementptr inbounds nuw i8, ptr %4, i64 528
  %26 = load i32, ptr %25, align 8
  %27 = or i32 %26, 16
  store i32 %27, ptr %25, align 8
  %28 = load ptr, ptr @X11_XMoveWindow, align 8
  %29 = getelementptr inbounds nuw i8, ptr %4, i64 8
  %30 = load i64, ptr %29, align 8
  %31 = load i32, ptr %16, align 4
  %32 = load i32, ptr %17, align 4
  %33 = tail call i32 %28(ptr noundef %7, i64 noundef %30, i32 noundef %31, i32 noundef %32) #12
  br label %34

34:                                               ; preds = %24, %21
  ret void
}